target datalayout = "e-m:e-p270:32:32-p271:32:32-p272:64:64-i64:64-i128:128-f80:128-n8:16:32:64-S128"
target triple = "x86_64-pc-linux-gnu"

@ShenandoahSATBBarrier = external global i8, align 1

; Function Attrs: mustprogress nounwind uwtable
define linkonce_odr hidden noundef zeroext i1 @_Z17is_reference_type9BasicTypeb(i8 noundef zeroext %0, i1 noundef zeroext %1) #1 comdat {
  %3 = alloca i8, align 1
  %4 = alloca i8, align 1
  store i8 %0, ptr %3, align 1
  %5 = zext i1 %1 to i8
  store i8 %5, ptr %4, align 1
  %6 = load i8, ptr %3, align 1
  %7 = zext i8 %6 to i32
  %8 = icmp eq i32 %7, 12
  br i1 %8, label %22, label %9

9:                                                ; preds = %2
  %10 = load i8, ptr %3, align 1
  %11 = zext i8 %10 to i32
  %12 = icmp eq i32 %11, 13
  br i1 %12, label %22, label %13

13:                                               ; preds = %9
  %14 = load i8, ptr %4, align 1
  %15 = trunc i8 %14 to i1
  br i1 %15, label %16, label %20

16:                                               ; preds = %13
  %17 = load i8, ptr %3, align 1
  %18 = zext i8 %17 to i32
  %19 = icmp eq i32 %18, 16
  br label %20

20:                                               ; preds = %16, %13
  %21 = phi i1 [ false, %13 ], [ %19, %16 ]
  br label %22

22:                                               ; preds = %20, %9, %2
  %23 = phi i1 [ true, %9 ], [ true, %2 ], [ %21, %20 ]
  ret i1 %23
}

; Function Attrs: mustprogress nounwind uwtable
define hidden noundef zeroext i1 @_ZN20ShenandoahBarrierSet23need_keep_alive_barrierEm9BasicType(i64 noundef %0, i8 noundef zeroext %1) #1 align 2 {
  %3 = alloca i1, align 1
  %4 = alloca i64, align 8
  %5 = alloca i8, align 1
  %6 = alloca i8, align 1
  %7 = alloca i8, align 1
  %8 = alloca i8, align 1
  store i64 %0, ptr %4, align 8
  store i8 %1, ptr %5, align 1
  %9 = load i8, ptr @ShenandoahSATBBarrier, align 1
  %10 = trunc i8 %9 to i1
  br i1 %10, label %12, label %11

11:                                               ; preds = %2
  store i1 false, ptr %3, align 1
  br label %39

12:                                               ; preds = %2
  %13 = load i8, ptr %5, align 1
  %14 = call noundef zeroext i1 @_Z17is_reference_type9BasicTypeb(i8 noundef zeroext %13, i1 noundef zeroext false)
  br i1 %14, label %16, label %15

15:                                               ; preds = %12
  store i1 false, ptr %3, align 1
  br label %39

16:                                               ; preds = %12
  %17 = load i64, ptr %4, align 8
  %18 = and i64 %17, 4096
  %19 = icmp eq i64 %18, 0
  %20 = zext i1 %19 to i8
  store i8 %20, ptr %6, align 1
  %21 = load i64, ptr %4, align 8
  %22 = and i64 %21, 131072
  %23 = icmp ne i64 %22, 0
  %24 = zext i1 %23 to i8
  store i8 %24, ptr %7, align 1
  %25 = load i64, ptr %4, align 8
  %26 = and i64 %25, 98304
  %27 = icmp ne i64 %26, 0
  %28 = zext i1 %27 to i8
  store i8 %28, ptr %8, align 1
  %29 = load i8, ptr %8, align 1
  %30 = trunc i8 %29 to i1
  br i1 %30, label %34, label %31

31:                                               ; preds = %16
  %32 = load i8, ptr %7, align 1
  %33 = trunc i8 %32 to i1
  br i1 %33, label %34, label %37

34:                                               ; preds = %31, %16
  %35 = load i8, ptr %6, align 1
  %36 = trunc i8 %35 to i1
  br label %37

37:                                               ; preds = %34, %31
  %38 = phi i1 [ false, %31 ], [ %36, %34 ]
  store i1 %38, ptr %3, align 1
  br label %39

39:                                               ; preds = %37, %15, %11
  %40 = load i1, ptr %3, align 1
  ret i1 %40
}