; Function Attrs: mustprogress nofree norecurse nosync nounwind willreturn memory(read, argmem: none, inaccessiblemem: none) uwtable
define hidden noundef zeroext i1 @_ZN20ShenandoahBarrierSet23need_keep_alive_barrierEm9BasicType(i64 noundef %0, i8 noundef zeroext %1) local_unnamed_addr #4 align 2 {
  %3 = load i8, ptr @ShenandoahSATBBarrier, align 1
  %4 = trunc i8 %3 to i1
  %5 = and i8 %1, -2
  %or.cond.i = icmp eq i8 %5, 12
  %or.cond8 = and i1 %or.cond.i, %4
  br i1 %or.cond8, label %6, label %_Z17is_reference_type9BasicTypeb.exit

6:                                                ; preds = %2
  %7 = and i64 %0, 4096
  %8 = icmp eq i64 %7, 0
  %9 = and i64 %0, 229376
  %or.cond = icmp ne i64 %9, 0
  %spec.select = and i1 %or.cond, %8
  br label %_Z17is_reference_type9BasicTypeb.exit

_Z17is_reference_type9BasicTypeb.exit:            ; preds = %6, %2
  %.0 = phi i1 [ false, %2 ], [ %spec.select, %6 ]
  ret i1 %.0
}